; Function Attrs: nounwind uwtable
define dso_local range(i32 -1, 1) i32 @power_job_reboot(ptr noundef %0, ptr noundef readonly captures(none) %1, ptr noundef %2) local_unnamed_addr #0 {
  %4 = alloca ptr, align 8
  call void @llvm.lifetime.start.p0(i64 8, ptr nonnull %4) #12
  %5 = tail call ptr @bitmap2node_name(ptr noundef %0) #12
  store ptr %5, ptr %4, align 8
  %.not = icmp eq ptr %5, null
  br i1 %.not, label %17, label %6

6:                                                ; preds = %3
  %7 = load ptr, ptr @resume_prog, align 8
  %8 = getelementptr inbounds nuw i8, ptr %1, i64 392
  %9 = load i32, ptr %8, align 8
  %10 = load i32, ptr @max_timeout, align 4
  tail call void @slurmscriptd_run_power(ptr noundef %7, ptr noundef nonnull %5, ptr noundef %2, i32 noundef %9, ptr noundef nonnull @.str, i32 noundef %10, ptr noundef null, ptr noundef null) #12
  %11 = load i64, ptr getelementptr inbounds nuw (i8, ptr @slurm_conf, i64 320), align 8
  %12 = and i64 %11, 4398046511104
  %.not5 = icmp eq i64 %12, 0
  br i1 %.not5, label %19, label %13

13:                                               ; preds = %6
  %14 = tail call i32 @get_log_level() #12
  %15 = icmp sgt i32 %14, 3
  br i1 %15, label %16, label %19

16:                                               ; preds = %13
  tail call void (i32, ptr, ...) @log_var(i32 noundef 4, ptr noundef nonnull @.str.1, ptr noundef nonnull @__func__.power_job_reboot, ptr noundef nonnull %5, ptr noundef %2) #12
  br label %19

17:                                               ; preds = %3
  %18 = tail call i32 (ptr, ...) @error(ptr noundef nonnull @.str.2, ptr noundef nonnull @__func__.power_job_reboot) #12
  br label %19

19:                                               ; preds = %6, %16, %13, %17
  %.0 = phi i32 [ 0, %16 ], [ 0, %13 ], [ 0, %6 ], [ -1, %17 ]
  call void @slurm_xfree(ptr noundef nonnull %4) #12
  call void @llvm.lifetime.end.p0(i64 8, ptr nonnull %4) #12
  ret i32 %.0
}